; Function Attrs: mustprogress nounwind null_pointer_is_valid sspstrong uwtable
define noundef zeroext i1 @_ZNK28SupportedProtocolsProxyModel8lessThanERK11QModelIndexS2_(ptr readnone align 8 captures(none) %0, ptr noundef readonly align 8 captures(none) dereferenceable(24) %1, ptr noundef readonly align 8 captures(none) dereferenceable(24) %2) unnamed_addr #2 align 2 personality ptr @__gxx_personality_v0 {
  %4 = alloca %class.QString, align 8
  %5 = alloca %class.QString, align 8
  %6 = getelementptr inbounds nuw i8, ptr %1, i64 8
  %7 = load i64, ptr %6, align 8
  %8 = getelementptr inbounds nuw i8, ptr %2, i64 8
  %9 = load i64, ptr %8, align 8
  %10 = inttoptr i64 %9 to ptr
  %11 = icmp ne i64 %7, 0
  %12 = icmp ne i64 %9, 0
  %or.cond = and i1 %11, %12
  br i1 %or.cond, label %13, label %45

13:                                               ; preds = %3
  %14 = inttoptr i64 %7 to ptr
  call void @llvm.lifetime.start.p0(i64 24, ptr nonnull %4) #22
  tail call void @llvm.experimental.noalias.scope.decl(metadata !43)
  %15 = getelementptr inbounds nuw i8, ptr %14, i64 48
  %16 = load ptr, ptr %15, align 8, !noalias !43
  store ptr %16, ptr %4, align 8, !alias.scope !43
  %17 = getelementptr inbounds nuw i8, ptr %4, i64 8
  %18 = getelementptr inbounds nuw i8, ptr %14, i64 56
  %19 = load ptr, ptr %18, align 8, !noalias !43
  store ptr %19, ptr %17, align 8, !alias.scope !43
  %20 = getelementptr inbounds nuw i8, ptr %4, i64 16
  %21 = getelementptr inbounds nuw i8, ptr %14, i64 64
  %22 = load i64, ptr %21, align 8, !noalias !43
  store i64 %22, ptr %20, align 8, !alias.scope !43
  %.not.i.i.i.i = icmp eq ptr %16, null
  br i1 %.not.i.i.i.i, label %_ZNK22SupportedProtocolsItem4nameEv.exit, label %23

23:                                               ; preds = %13
  %24 = atomicrmw add ptr %16, i32 1 seq_cst, align 4, !noalias !43
  br label %_ZNK22SupportedProtocolsItem4nameEv.exit

_ZNK22SupportedProtocolsItem4nameEv.exit:         ; preds = %13, %23
  call void @llvm.lifetime.start.p0(i64 24, ptr nonnull %5) #22
  tail call void @llvm.experimental.noalias.scope.decl(metadata !46)
  %25 = getelementptr inbounds nuw i8, ptr %10, i64 48
  %26 = load ptr, ptr %25, align 8, !noalias !46
  store ptr %26, ptr %5, align 8, !alias.scope !46
  %27 = getelementptr inbounds nuw i8, ptr %5, i64 8
  %28 = getelementptr inbounds nuw i8, ptr %10, i64 56
  %29 = load ptr, ptr %28, align 8, !noalias !46
  store ptr %29, ptr %27, align 8, !alias.scope !46
  %30 = getelementptr inbounds nuw i8, ptr %5, i64 16
  %31 = getelementptr inbounds nuw i8, ptr %10, i64 64
  %32 = load i64, ptr %31, align 8, !noalias !46
  store i64 %32, ptr %30, align 8, !alias.scope !46
  %.not.i.i.i.i12 = icmp eq ptr %26, null
  br i1 %.not.i.i.i.i12, label %_ZNK22SupportedProtocolsItem4nameEv.exit13, label %33

33:                                               ; preds = %_ZNK22SupportedProtocolsItem4nameEv.exit
  %34 = atomicrmw add ptr %26, i32 1 seq_cst, align 4, !noalias !46
  br label %_ZNK22SupportedProtocolsItem4nameEv.exit13

_ZNK22SupportedProtocolsItem4nameEv.exit13:       ; preds = %_ZNK22SupportedProtocolsItem4nameEv.exit, %33
  %35 = call noundef i32 @_ZNK7QString7compareERKS_N2Qt15CaseSensitivityE(ptr noundef nonnull align 8 dereferenceable(24) dereferenceable_or_null(24) %4, ptr noundef nonnull align 8 dereferenceable(24) %5, i32 noundef 0) #22
  %36 = load ptr, ptr %5, align 8
  %.not.i.i.i = icmp eq ptr %36, null
  br i1 %.not.i.i.i, label %_ZN7QStringD2Ev.exit, label %_ZN17QArrayDataPointerIDsE5derefEv.exit.i.i

_ZN17QArrayDataPointerIDsE5derefEv.exit.i.i:      ; preds = %_ZNK22SupportedProtocolsItem4nameEv.exit13
  %37 = atomicrmw sub ptr %36, i32 1 seq_cst, align 4
  %.not.i.i = icmp eq i32 %37, 1
  br i1 %.not.i.i, label %38, label %_ZN7QStringD2Ev.exit

38:                                               ; preds = %_ZN17QArrayDataPointerIDsE5derefEv.exit.i.i
  %39 = load ptr, ptr %5, align 8
  call void @_ZN10QArrayData10deallocateEPS_xx(ptr noundef %39, i64 noundef 2, i64 noundef 8) #22
  br label %_ZN7QStringD2Ev.exit

_ZN7QStringD2Ev.exit:                             ; preds = %_ZNK22SupportedProtocolsItem4nameEv.exit13, %_ZN17QArrayDataPointerIDsE5derefEv.exit.i.i, %38
  call void @llvm.lifetime.end.p0(i64 24, ptr nonnull %5) #22
  %40 = load ptr, ptr %4, align 8
  %.not.i.i.i14 = icmp eq ptr %40, null
  br i1 %.not.i.i.i14, label %_ZN7QStringD2Ev.exit17, label %_ZN17QArrayDataPointerIDsE5derefEv.exit.i.i15

_ZN17QArrayDataPointerIDsE5derefEv.exit.i.i15:    ; preds = %_ZN7QStringD2Ev.exit
  %41 = atomicrmw sub ptr %40, i32 1 seq_cst, align 4
  %.not.i.i16 = icmp eq i32 %41, 1
  br i1 %.not.i.i16, label %42, label %_ZN7QStringD2Ev.exit17

42:                                               ; preds = %_ZN17QArrayDataPointerIDsE5derefEv.exit.i.i15
  %43 = load ptr, ptr %4, align 8
  call void @_ZN10QArrayData10deallocateEPS_xx(ptr noundef %43, i64 noundef 2, i64 noundef 8) #22
  br label %_ZN7QStringD2Ev.exit17

_ZN7QStringD2Ev.exit17:                           ; preds = %_ZN7QStringD2Ev.exit, %_ZN17QArrayDataPointerIDsE5derefEv.exit.i.i15, %42
  call void @llvm.lifetime.end.p0(i64 24, ptr nonnull %4) #22
  %44 = icmp sgt i32 %35, -1
  br i1 %44, label %45, label %46

45:                                               ; preds = %_ZN7QStringD2Ev.exit17, %3
  br label %46

46:                                               ; preds = %_ZN7QStringD2Ev.exit17, %45
  %.1 = phi i1 [ false, %45 ], [ true, %_ZN7QStringD2Ev.exit17 ]
  ret i1 %.1
}